; Function Attrs: mustprogress nofree nounwind willreturn memory(write, argmem: readwrite) uwtable
define noundef double @_ZNK8QuantLib16CEVRNDCalculator4invXEd(ptr nocapture noundef nonnull readonly align 8 dereferenceable(48) %this, double noundef %x) local_unnamed_addr #2 align 2 {
entry:
  %alpha_ = getelementptr inbounds nuw i8, ptr %this, i64 16
  %0 = load double, ptr %alpha_, align 8, !tbaa !11
  %beta_ = getelementptr inbounds nuw i8, ptr %this, i64 24
  %1 = load double, ptr %beta_, align 8, !tbaa !12
  %sub = fsub double 1.000000e+00, %1
  %mul = fmul double %0, %sub
  %mul.i = fmul double %mul, %mul
  %mul2 = fmul double %x, %mul.i
  %mul5 = fmul double %sub, 2.000000e+00
  %div = fdiv double 1.000000e+00, %mul5
  %call6 = tail call double @pow(double noundef %mul2, double noundef %div) #34, !tbaa !14
  ret double %call6
}